target datalayout = "e-m:e-p270:32:32-p271:32:32-p272:64:64-i64:64-i128:128-f80:128-n8:16:32:64-S128"
target triple = "x86_64-pc-linux-gnu"

%struct.ResourceOwnerData = type { ptr, ptr, ptr, ptr, i8, i8, i8, i8, i32, [32 x %struct.ResourceElem], ptr, i32, i32, [15 x ptr] }
%struct.ResourceElem = type { i64, ptr }

@AuxProcessResourceOwner = dso_local global ptr null, align 8

; Function Attrs: nounwind uwtable
define dso_local void @ResourceOwnerRelease(ptr noundef %0, i32 noundef %1, i1 noundef zeroext %2, i1 noundef zeroext %3) #0 {
  %5 = alloca ptr, align 8
  %6 = alloca i32, align 4
  %7 = alloca i8, align 1
  %8 = alloca i8, align 1
  store ptr %0, ptr %5, align 8
  store i32 %1, ptr %6, align 4
  %9 = zext i1 %2 to i8
  store i8 %9, ptr %7, align 1
  %10 = zext i1 %3 to i8
  store i8 %10, ptr %8, align 1
  %11 = load ptr, ptr %5, align 8
  %12 = load i32, ptr %6, align 4
  %13 = load i8, ptr %7, align 1, !range !4, !noundef !5
  %14 = trunc i8 %13 to i1
  %15 = load i8, ptr %8, align 1, !range !4, !noundef !5
  %16 = trunc i8 %15 to i1
  call void @ResourceOwnerReleaseInternal(ptr noundef %11, i32 noundef %12, i1 noundef zeroext %14, i1 noundef zeroext %16)
  ret void
}

; Function Attrs: nounwind uwtable
define dso_local void @ReleaseAuxProcessResources(i1 noundef zeroext %0) #0 {
  %2 = alloca i8, align 1
  %3 = zext i1 %0 to i8
  store i8 %3, ptr %2, align 1
  %4 = load ptr, ptr @AuxProcessResourceOwner, align 8
  %5 = load i8, ptr %2, align 1, !range !4, !noundef !5
  %6 = trunc i8 %5 to i1
  call void @ResourceOwnerRelease(ptr noundef %4, i32 noundef 1, i1 noundef zeroext %6, i1 noundef zeroext true)
  %7 = load ptr, ptr @AuxProcessResourceOwner, align 8
  %8 = load i8, ptr %2, align 1, !range !4, !noundef !5
  %9 = trunc i8 %8 to i1
  call void @ResourceOwnerRelease(ptr noundef %7, i32 noundef 2, i1 noundef zeroext %9, i1 noundef zeroext true)
  %10 = load ptr, ptr @AuxProcessResourceOwner, align 8
  %11 = load i8, ptr %2, align 1, !range !4, !noundef !5
  %12 = trunc i8 %11 to i1
  call void @ResourceOwnerRelease(ptr noundef %10, i32 noundef 3, i1 noundef zeroext %12, i1 noundef zeroext true)
  %13 = load ptr, ptr @AuxProcessResourceOwner, align 8
  %14 = getelementptr inbounds nuw %struct.ResourceOwnerData, ptr %13, i32 0, i32 4
  store i8 0, ptr %14, align 8
  %15 = load ptr, ptr @AuxProcessResourceOwner, align 8
  %16 = getelementptr inbounds nuw %struct.ResourceOwnerData, ptr %15, i32 0, i32 5
  store i8 0, ptr %16, align 1
  ret void
}