; Function Attrs: nounwind uwtable
define dso_local void @ReleaseAuxProcessResources(i1 noundef zeroext %0) local_unnamed_addr #0 {
  %2 = load ptr, ptr @AuxProcessResourceOwner, align 8
  tail call fastcc void @ResourceOwnerReleaseInternal(ptr noundef %2, i32 noundef 1, i1 noundef zeroext %0, i1 noundef zeroext true)
  %3 = load ptr, ptr @AuxProcessResourceOwner, align 8
  tail call fastcc void @ResourceOwnerReleaseInternal(ptr noundef %3, i32 noundef 2, i1 noundef zeroext %0, i1 noundef zeroext true)
  %4 = load ptr, ptr @AuxProcessResourceOwner, align 8
  tail call fastcc void @ResourceOwnerReleaseInternal(ptr noundef %4, i32 noundef 3, i1 noundef zeroext %0, i1 noundef zeroext true)
  %5 = load ptr, ptr @AuxProcessResourceOwner, align 8
  %6 = getelementptr inbounds nuw i8, ptr %5, i64 32
  store i8 0, ptr %6, align 8
  %7 = getelementptr inbounds nuw i8, ptr %5, i64 33
  store i8 0, ptr %7, align 1
  ret void
}